; Function Attrs: null_pointer_is_valid sspstrong uwtable
define internal i32 @dissect_ngap_FiveG_TMSI(ptr noundef %0, i32 noundef %1, ptr noundef %2, ptr noundef %3, i32 noundef %4) #0 {
  %6 = alloca ptr, align 8
  call void @llvm.lifetime.start.p0(i64 8, ptr nonnull %6) #12
  store ptr null, ptr %6, align 8
  %7 = call i32 @dissect_per_octet_string(ptr noundef %0, i32 noundef %1, ptr noundef %2, ptr noundef %3, i32 noundef -1, i32 noundef 4, i32 noundef 4, i1 noundef zeroext false, ptr noundef nonnull %6)
  %8 = load ptr, ptr %6, align 8
  %.not = icmp eq ptr %8, null
  br i1 %.not, label %proto_item_set_hidden.exit, label %9

9:                                                ; preds = %5
  %10 = call ptr @proto_tree_add_item(ptr noundef %3, i32 noundef %4, ptr noundef nonnull %8, i32 noundef 0, i32 noundef 4, i32 noundef 0)
  %11 = getelementptr inbounds nuw i8, ptr %2, i64 24
  store ptr %10, ptr %11, align 8
  %12 = load i32, ptr @hf_3gpp_tmsi, align 4
  %13 = call ptr @proto_tree_add_item(ptr noundef %3, i32 noundef %12, ptr noundef %0, i32 noundef 0, i32 noundef 4, i32 noundef 0)
  %.not.i = icmp eq ptr %13, null
  br i1 %.not.i, label %proto_item_set_hidden.exit, label %14

14:                                               ; preds = %9
  %15 = getelementptr inbounds nuw i8, ptr %13, i64 40
  %16 = load ptr, ptr %15, align 8
  %.not5.i = icmp eq ptr %16, null
  br i1 %.not5.i, label %proto_item_set_hidden.exit, label %17

17:                                               ; preds = %14
  %18 = getelementptr inbounds nuw i8, ptr %16, i64 28
  %19 = load i32, ptr %18, align 4
  %20 = or i32 %19, 1
  store i32 %20, ptr %18, align 4
  br label %proto_item_set_hidden.exit

proto_item_set_hidden.exit:                       ; preds = %17, %14, %9, %5
  call void @llvm.lifetime.end.p0(i64 8, ptr nonnull %6) #12
  ret i32 %7
}